target datalayout = "e-m:e-p270:32:32-p271:32:32-p272:64:64-i64:64-i128:128-f80:128-n8:16:32:64-S128"
target triple = "x86_64-pc-linux-gnu"

%struct.AVFormatContext = type { ptr, ptr, ptr, ptr, ptr, i32, i32, ptr, i32, ptr, i32, ptr, ptr, i64, i64, i64, i32, i32, i32, i64, i64, ptr, i32, i32, ptr, i32, i32, i32, i32, ptr, i64, i32, i32, %struct.AVIOInterruptCB, i32, i32, i32, i32, i64, i32, i32, i32, i32, i32, i32, i32, i32, i32, i32, i32, i32, i64, i32, i32, i32, i32, i32, ptr, ptr, ptr, ptr, i32, ptr, ptr, ptr, ptr, i32, ptr, ptr, i64, ptr, ptr, ptr, i64 }
%struct.AVIOInterruptCB = type { ptr, ptr }
%struct.SeqDemuxContext = type { i32, i32, i32, i32, [30 x %struct.TiertexSeqFrameBuffer], i32, i32, i32, i32, i32, i32, ptr, i32 }
%struct.TiertexSeqFrameBuffer = type { i32, i32, ptr }
%struct.AVPacket = type { ptr, i64, i64, ptr, i32, i32, i32, ptr, i32, i64, i64, ptr, ptr, %struct.AVRational }
%struct.AVRational = type { i32, i32 }

; Function Attrs: nounwind uwtable
define internal i32 @seq_read_packet(ptr noundef %0, ptr noundef %1) #0 {
  %3 = alloca i32, align 4
  %4 = alloca ptr, align 8
  %5 = alloca ptr, align 8
  %6 = alloca i32, align 4
  %7 = alloca ptr, align 8
  %8 = alloca ptr, align 8
  %9 = alloca i32, align 4
  store ptr %0, ptr %4, align 8, !tbaa !18
  store ptr %1, ptr %5, align 8, !tbaa !74
  call void @llvm.lifetime.start.p0(i64 4, ptr %6) #4
  call void @llvm.lifetime.start.p0(i64 8, ptr %7) #4
  %10 = load ptr, ptr %4, align 8, !tbaa !18
  %11 = getelementptr inbounds nuw %struct.AVFormatContext, ptr %10, i32 0, i32 3
  %12 = load ptr, ptr %11, align 8, !tbaa !20
  store ptr %12, ptr %7, align 8, !tbaa !35
  call void @llvm.lifetime.start.p0(i64 8, ptr %8) #4
  %13 = load ptr, ptr %4, align 8, !tbaa !18
  %14 = getelementptr inbounds nuw %struct.AVFormatContext, ptr %13, i32 0, i32 4
  %15 = load ptr, ptr %14, align 8, !tbaa !37
  store ptr %15, ptr %8, align 8, !tbaa !38
  %16 = load ptr, ptr %7, align 8, !tbaa !35
  %17 = getelementptr inbounds nuw %struct.SeqDemuxContext, ptr %16, i32 0, i32 12
  %18 = load i32, ptr %17, align 8, !tbaa !43
  %19 = icmp ne i32 %18, 0
  br i1 %19, label %140, label %20

20:                                               ; preds = %2
  %21 = load ptr, ptr %7, align 8, !tbaa !35
  %22 = load ptr, ptr %8, align 8, !tbaa !38
  %23 = call i32 @seq_parse_frame_data(ptr noundef %21, ptr noundef %22)
  store i32 %23, ptr %6, align 4, !tbaa !13
  %24 = load i32, ptr %6, align 4, !tbaa !13
  %25 = icmp ne i32 %24, 0
  br i1 %25, label %26, label %28

26:                                               ; preds = %20
  %27 = load i32, ptr %6, align 4, !tbaa !13
  store i32 %27, ptr %3, align 4
  store i32 1, ptr %9, align 4
  br label %179

28:                                               ; preds = %20
  %29 = load ptr, ptr %7, align 8, !tbaa !35
  %30 = getelementptr inbounds nuw %struct.SeqDemuxContext, ptr %29, i32 0, i32 8
  %31 = load i32, ptr %30, align 4, !tbaa !76
  %32 = load ptr, ptr %7, align 8, !tbaa !35
  %33 = getelementptr inbounds nuw %struct.SeqDemuxContext, ptr %32, i32 0, i32 10
  %34 = load i32, ptr %33, align 4, !tbaa !77
  %35 = add i32 %31, %34
  %36 = icmp ne i32 %35, 0
  br i1 %36, label %37, label %139

37:                                               ; preds = %28
  %38 = load ptr, ptr %5, align 8, !tbaa !74
  %39 = load ptr, ptr %7, align 8, !tbaa !35
  %40 = getelementptr inbounds nuw %struct.SeqDemuxContext, ptr %39, i32 0, i32 8
  %41 = load i32, ptr %40, align 4, !tbaa !76
  %42 = add i32 1, %41
  %43 = load ptr, ptr %7, align 8, !tbaa !35
  %44 = getelementptr inbounds nuw %struct.SeqDemuxContext, ptr %43, i32 0, i32 10
  %45 = load i32, ptr %44, align 4, !tbaa !77
  %46 = add i32 %42, %45
  %47 = call i32 @av_new_packet(ptr noundef %38, i32 noundef %46)
  store i32 %47, ptr %6, align 4, !tbaa !13
  %48 = load i32, ptr %6, align 4, !tbaa !13
  %49 = icmp slt i32 %48, 0
  br i1 %49, label %50, label %52

50:                                               ; preds = %37
  %51 = load i32, ptr %6, align 4, !tbaa !13
  store i32 %51, ptr %3, align 4
  store i32 1, ptr %9, align 4
  br label %179

52:                                               ; preds = %37
  %53 = load ptr, ptr %5, align 8, !tbaa !74
  %54 = getelementptr inbounds nuw %struct.AVPacket, ptr %53, i32 0, i32 3
  %55 = load ptr, ptr %54, align 8, !tbaa !78
  %56 = getelementptr inbounds i8, ptr %55, i64 0
  store i8 0, ptr %56, align 1, !tbaa !15
  %57 = load ptr, ptr %7, align 8, !tbaa !35
  %58 = getelementptr inbounds nuw %struct.SeqDemuxContext, ptr %57, i32 0, i32 8
  %59 = load i32, ptr %58, align 4, !tbaa !76
  %60 = icmp ne i32 %59, 0
  br i1 %60, label %61, label %95

61:                                               ; preds = %52
  %62 = load ptr, ptr %5, align 8, !tbaa !74
  %63 = getelementptr inbounds nuw %struct.AVPacket, ptr %62, i32 0, i32 3
  %64 = load ptr, ptr %63, align 8, !tbaa !78
  %65 = getelementptr inbounds i8, ptr %64, i64 0
  %66 = load i8, ptr %65, align 1, !tbaa !15
  %67 = zext i8 %66 to i32
  %68 = or i32 %67, 1
  %69 = trunc i32 %68 to i8
  store i8 %69, ptr %65, align 1, !tbaa !15
  %70 = load ptr, ptr %8, align 8, !tbaa !38
  %71 = load ptr, ptr %7, align 8, !tbaa !35
  %72 = getelementptr inbounds nuw %struct.SeqDemuxContext, ptr %71, i32 0, i32 3
  %73 = load i32, ptr %72, align 4, !tbaa !39
  %74 = load ptr, ptr %7, align 8, !tbaa !35
  %75 = getelementptr inbounds nuw %struct.SeqDemuxContext, ptr %74, i32 0, i32 9
  %76 = load i32, ptr %75, align 8, !tbaa !79
  %77 = add i32 %73, %76
  %78 = zext i32 %77 to i64
  %79 = call i64 @avio_seek(ptr noundef %70, i64 noundef %78, i32 noundef 0)
  %80 = load ptr, ptr %8, align 8, !tbaa !38
  %81 = load ptr, ptr %5, align 8, !tbaa !74
  %82 = getelementptr inbounds nuw %struct.AVPacket, ptr %81, i32 0, i32 3
  %83 = load ptr, ptr %82, align 8, !tbaa !78
  %84 = getelementptr inbounds i8, ptr %83, i64 1
  %85 = load ptr, ptr %7, align 8, !tbaa !35
  %86 = getelementptr inbounds nuw %struct.SeqDemuxContext, ptr %85, i32 0, i32 8
  %87 = load i32, ptr %86, align 4, !tbaa !76
  %88 = call i32 @avio_read(ptr noundef %80, ptr noundef %84, i32 noundef %87)
  %89 = load ptr, ptr %7, align 8, !tbaa !35
  %90 = getelementptr inbounds nuw %struct.SeqDemuxContext, ptr %89, i32 0, i32 8
  %91 = load i32, ptr %90, align 4, !tbaa !76
  %92 = icmp ne i32 %88, %91
  br i1 %92, label %93, label %94

93:                                               ; preds = %61
  store i32 -5, ptr %3, align 4
  store i32 1, ptr %9, align 4
  br label %179

94:                                               ; preds = %61
  br label %95

95:                                               ; preds = %94, %52
  %96 = load ptr, ptr %7, align 8, !tbaa !35
  %97 = getelementptr inbounds nuw %struct.SeqDemuxContext, ptr %96, i32 0, i32 10
  %98 = load i32, ptr %97, align 4, !tbaa !77
  %99 = icmp ne i32 %98, 0
  br i1 %99, label %100, label %125

100:                                              ; preds = %95
  %101 = load ptr, ptr %5, align 8, !tbaa !74
  %102 = getelementptr inbounds nuw %struct.AVPacket, ptr %101, i32 0, i32 3
  %103 = load ptr, ptr %102, align 8, !tbaa !78
  %104 = getelementptr inbounds i8, ptr %103, i64 0
  %105 = load i8, ptr %104, align 1, !tbaa !15
  %106 = zext i8 %105 to i32
  %107 = or i32 %106, 2
  %108 = trunc i32 %107 to i8
  store i8 %108, ptr %104, align 1, !tbaa !15
  %109 = load ptr, ptr %5, align 8, !tbaa !74
  %110 = getelementptr inbounds nuw %struct.AVPacket, ptr %109, i32 0, i32 3
  %111 = load ptr, ptr %110, align 8, !tbaa !78
  %112 = load ptr, ptr %7, align 8, !tbaa !35
  %113 = getelementptr inbounds nuw %struct.SeqDemuxContext, ptr %112, i32 0, i32 8
  %114 = load i32, ptr %113, align 4, !tbaa !76
  %115 = add i32 1, %114
  %116 = zext i32 %115 to i64
  %117 = getelementptr inbounds nuw i8, ptr %111, i64 %116
  %118 = load ptr, ptr %7, align 8, !tbaa !35
  %119 = getelementptr inbounds nuw %struct.SeqDemuxContext, ptr %118, i32 0, i32 11
  %120 = load ptr, ptr %119, align 8, !tbaa !80
  %121 = load ptr, ptr %7, align 8, !tbaa !35
  %122 = getelementptr inbounds nuw %struct.SeqDemuxContext, ptr %121, i32 0, i32 10
  %123 = load i32, ptr %122, align 4, !tbaa !77
  %124 = zext i32 %123 to i64
  call void @llvm.memcpy.p0.p0.i64(ptr align 1 %117, ptr align 1 %120, i64 %124, i1 false)
  br label %125

125:                                              ; preds = %100, %95
  %126 = load ptr, ptr %7, align 8, !tbaa !35
  %127 = getelementptr inbounds nuw %struct.SeqDemuxContext, ptr %126, i32 0, i32 1
  %128 = load i32, ptr %127, align 4, !tbaa !53
  %129 = load ptr, ptr %5, align 8, !tbaa !74
  %130 = getelementptr inbounds nuw %struct.AVPacket, ptr %129, i32 0, i32 5
  store i32 %128, ptr %130, align 4, !tbaa !81
  %131 = load ptr, ptr %7, align 8, !tbaa !35
  %132 = getelementptr inbounds nuw %struct.SeqDemuxContext, ptr %131, i32 0, i32 2
  %133 = load i32, ptr %132, align 8, !tbaa !42
  %134 = sext i32 %133 to i64
  %135 = load ptr, ptr %5, align 8, !tbaa !74
  %136 = getelementptr inbounds nuw %struct.AVPacket, ptr %135, i32 0, i32 1
  store i64 %134, ptr %136, align 8, !tbaa !82
  %137 = load ptr, ptr %7, align 8, !tbaa !35
  %138 = getelementptr inbounds nuw %struct.SeqDemuxContext, ptr %137, i32 0, i32 12
  store i32 1, ptr %138, align 8, !tbaa !43
  store i32 0, ptr %3, align 4
  store i32 1, ptr %9, align 4
  br label %179

139:                                              ; preds = %28
  br label %140

140:                                              ; preds = %139, %2
  %141 = load ptr, ptr %7, align 8, !tbaa !35
  %142 = getelementptr inbounds nuw %struct.SeqDemuxContext, ptr %141, i32 0, i32 7
  %143 = load i32, ptr %142, align 8, !tbaa !83
  %144 = icmp eq i32 %143, 0
  br i1 %144, label %145, label %146

145:                                              ; preds = %140
  store i32 -5, ptr %3, align 4
  store i32 1, ptr %9, align 4
  br label %179

146:                                              ; preds = %140
  %147 = load ptr, ptr %8, align 8, !tbaa !38
  %148 = load ptr, ptr %7, align 8, !tbaa !35
  %149 = getelementptr inbounds nuw %struct.SeqDemuxContext, ptr %148, i32 0, i32 3
  %150 = load i32, ptr %149, align 4, !tbaa !39
  %151 = load ptr, ptr %7, align 8, !tbaa !35
  %152 = getelementptr inbounds nuw %struct.SeqDemuxContext, ptr %151, i32 0, i32 7
  %153 = load i32, ptr %152, align 8, !tbaa !83
  %154 = add i32 %150, %153
  %155 = zext i32 %154 to i64
  %156 = call i64 @avio_seek(ptr noundef %147, i64 noundef %155, i32 noundef 0)
  %157 = load ptr, ptr %8, align 8, !tbaa !38
  %158 = load ptr, ptr %5, align 8, !tbaa !74
  %159 = load ptr, ptr %7, align 8, !tbaa !35
  %160 = getelementptr inbounds nuw %struct.SeqDemuxContext, ptr %159, i32 0, i32 6
  %161 = load i32, ptr %160, align 4, !tbaa !84
  %162 = call i32 @av_get_packet(ptr noundef %157, ptr noundef %158, i32 noundef %161)
  store i32 %162, ptr %6, align 4, !tbaa !13
  %163 = load i32, ptr %6, align 4, !tbaa !13
  %164 = icmp slt i32 %163, 0
  br i1 %164, label %165, label %167

165:                                              ; preds = %146
  %166 = load i32, ptr %6, align 4, !tbaa !13
  store i32 %166, ptr %3, align 4
  store i32 1, ptr %9, align 4
  br label %179

167:                                              ; preds = %146
  %168 = load ptr, ptr %7, align 8, !tbaa !35
  %169 = getelementptr inbounds nuw %struct.SeqDemuxContext, ptr %168, i32 0, i32 0
  %170 = load i32, ptr %169, align 8, !tbaa !63
  %171 = load ptr, ptr %5, align 8, !tbaa !74
  %172 = getelementptr inbounds nuw %struct.AVPacket, ptr %171, i32 0, i32 5
  store i32 %170, ptr %172, align 4, !tbaa !81
  %173 = load ptr, ptr %7, align 8, !tbaa !35
  %174 = getelementptr inbounds nuw %struct.SeqDemuxContext, ptr %173, i32 0, i32 2
  %175 = load i32, ptr %174, align 8, !tbaa !42
  %176 = add nsw i32 %175, 1
  store i32 %176, ptr %174, align 8, !tbaa !42
  %177 = load ptr, ptr %7, align 8, !tbaa !35
  %178 = getelementptr inbounds nuw %struct.SeqDemuxContext, ptr %177, i32 0, i32 12
  store i32 0, ptr %178, align 8, !tbaa !43
  store i32 0, ptr %3, align 4
  store i32 1, ptr %9, align 4
  br label %179

179:                                              ; preds = %167, %165, %145, %125, %93, %50, %26
  call void @llvm.lifetime.end.p0(i64 8, ptr %8) #4
  call void @llvm.lifetime.end.p0(i64 8, ptr %7) #4
  call void @llvm.lifetime.end.p0(i64 4, ptr %6) #4
  %180 = load i32, ptr %3, align 4
  ret i32 %180
}