; Function Attrs: nounwind uwtable
define internal range(i32 -2147483648, 1) i32 @seq_read_packet(ptr noundef readonly captures(none) %0, ptr noundef %1) #1 {
  %3 = getelementptr inbounds nuw i8, ptr %0, i64 24
  %4 = load ptr, ptr %3, align 8, !tbaa !15
  %5 = getelementptr inbounds nuw i8, ptr %0, i64 32
  %6 = load ptr, ptr %5, align 8, !tbaa !30
  %7 = getelementptr inbounds nuw i8, ptr %4, i64 528
  %8 = load i32, ptr %7, align 8, !tbaa !41
  %.not = icmp eq i32 %8, 0
  br i1 %.not, label %9, label %65

9:                                                ; preds = %2
  %10 = tail call fastcc i32 @seq_parse_frame_data(ptr noundef nonnull %4, ptr noundef %6)
  %.not52 = icmp eq i32 %10, 0
  br i1 %.not52, label %11, label %85

11:                                               ; preds = %9
  %12 = getelementptr inbounds nuw i8, ptr %4, i64 508
  %13 = load i32, ptr %12, align 4, !tbaa !67
  %14 = getelementptr inbounds nuw i8, ptr %4, i64 516
  %15 = load i32, ptr %14, align 4, !tbaa !68
  %16 = sub i32 0, %15
  %.not53 = icmp eq i32 %13, %16
  br i1 %.not53, label %65, label %17

17:                                               ; preds = %11
  %18 = add i32 %13, 1
  %19 = add i32 %18, %15
  %20 = tail call i32 @av_new_packet(ptr noundef %1, i32 noundef %19) #5
  %21 = icmp slt i32 %20, 0
  br i1 %21, label %85, label %22

22:                                               ; preds = %17
  %23 = getelementptr inbounds nuw i8, ptr %1, i64 24
  %24 = load ptr, ptr %23, align 8, !tbaa !69
  store i8 0, ptr %24, align 1, !tbaa !14
  %25 = load i32, ptr %12, align 4, !tbaa !67
  %.not54 = icmp eq i32 %25, 0
  br i1 %.not54, label %42, label %26

26:                                               ; preds = %22
  %27 = load ptr, ptr %23, align 8, !tbaa !69
  %28 = load i8, ptr %27, align 1, !tbaa !14
  %29 = or i8 %28, 1
  store i8 %29, ptr %27, align 1, !tbaa !14
  %30 = getelementptr inbounds nuw i8, ptr %4, i64 12
  %31 = load i32, ptr %30, align 4, !tbaa !38
  %32 = getelementptr inbounds nuw i8, ptr %4, i64 512
  %33 = load i32, ptr %32, align 8, !tbaa !70
  %34 = add i32 %33, %31
  %35 = zext i32 %34 to i64
  %36 = tail call i64 @avio_seek(ptr noundef %6, i64 noundef %35, i32 noundef 0) #5
  %37 = load ptr, ptr %23, align 8, !tbaa !69
  %38 = getelementptr inbounds nuw i8, ptr %37, i64 1
  %39 = load i32, ptr %12, align 4, !tbaa !67
  %40 = tail call i32 @avio_read(ptr noundef %6, ptr noundef nonnull %38, i32 noundef %39) #5
  %41 = load i32, ptr %12, align 4, !tbaa !67
  %.not55 = icmp eq i32 %40, %41
  br i1 %.not55, label %42, label %85

42:                                               ; preds = %26, %22
  %43 = load i32, ptr %14, align 4, !tbaa !68
  %.not56 = icmp eq i32 %43, 0
  br i1 %.not56, label %57, label %44

44:                                               ; preds = %42
  %45 = load ptr, ptr %23, align 8, !tbaa !69
  %46 = load i8, ptr %45, align 1, !tbaa !14
  %47 = or i8 %46, 2
  store i8 %47, ptr %45, align 1, !tbaa !14
  %48 = load ptr, ptr %23, align 8, !tbaa !69
  %49 = load i32, ptr %12, align 4, !tbaa !67
  %50 = add i32 %49, 1
  %51 = zext i32 %50 to i64
  %52 = getelementptr inbounds nuw i8, ptr %48, i64 %51
  %53 = getelementptr inbounds nuw i8, ptr %4, i64 520
  %54 = load ptr, ptr %53, align 8, !tbaa !71
  %55 = load i32, ptr %14, align 4, !tbaa !68
  %56 = zext i32 %55 to i64
  tail call void @llvm.memcpy.p0.p0.i64(ptr align 1 %52, ptr align 1 %54, i64 %56, i1 false)
  br label %57

57:                                               ; preds = %44, %42
  %58 = getelementptr inbounds nuw i8, ptr %4, i64 4
  %59 = load i32, ptr %58, align 4, !tbaa !49
  %60 = getelementptr inbounds nuw i8, ptr %1, i64 36
  store i32 %59, ptr %60, align 4, !tbaa !72
  %61 = getelementptr inbounds nuw i8, ptr %4, i64 8
  %62 = load i32, ptr %61, align 8, !tbaa !40
  %63 = sext i32 %62 to i64
  %64 = getelementptr inbounds nuw i8, ptr %1, i64 8
  store i64 %63, ptr %64, align 8, !tbaa !73
  br label %.sink.split

65:                                               ; preds = %11, %2
  %66 = getelementptr inbounds nuw i8, ptr %4, i64 504
  %67 = load i32, ptr %66, align 8, !tbaa !74
  %68 = icmp eq i32 %67, 0
  br i1 %68, label %85, label %69

69:                                               ; preds = %65
  %70 = getelementptr inbounds nuw i8, ptr %4, i64 12
  %71 = load i32, ptr %70, align 4, !tbaa !38
  %72 = add i32 %71, %67
  %73 = zext i32 %72 to i64
  %74 = tail call i64 @avio_seek(ptr noundef %6, i64 noundef %73, i32 noundef 0) #5
  %75 = getelementptr inbounds nuw i8, ptr %4, i64 500
  %76 = load i32, ptr %75, align 4, !tbaa !75
  %77 = tail call i32 @av_get_packet(ptr noundef %6, ptr noundef %1, i32 noundef %76) #5
  %78 = icmp slt i32 %77, 0
  br i1 %78, label %85, label %79

79:                                               ; preds = %69
  %80 = load i32, ptr %4, align 8, !tbaa !59
  %81 = getelementptr inbounds nuw i8, ptr %1, i64 36
  store i32 %80, ptr %81, align 4, !tbaa !72
  %82 = getelementptr inbounds nuw i8, ptr %4, i64 8
  %83 = load i32, ptr %82, align 8, !tbaa !40
  %84 = add nsw i32 %83, 1
  store i32 %84, ptr %82, align 8, !tbaa !40
  br label %.sink.split

.sink.split:                                      ; preds = %57, %79
  %.sink = phi i32 [ 0, %79 ], [ 1, %57 ]
  store i32 %.sink, ptr %7, align 8, !tbaa !41
  br label %85

85:                                               ; preds = %.sink.split, %69, %65, %26, %17, %9
  %.0 = phi i32 [ %10, %9 ], [ %20, %17 ], [ -5, %26 ], [ -5, %65 ], [ %77, %69 ], [ 0, %.sink.split ]
  ret i32 %.0
}